; Function Attrs: nounwind uwtable
define ptr @l_Array_forIn_x27Unsafe_loop___at_Lean_Meta_Grind_getFnRoots___spec__2(ptr readnone captures(none) %0, ptr readnone captures(none) %1, ptr noundef %2, ptr noundef %3, ptr noundef readonly captures(none) %4, i64 noundef %5, i64 noundef %6, ptr noundef %7) local_unnamed_addr #0 {
  %.not49 = icmp ult i64 %6, %5
  br i1 %.not49, label %.lr.ph, label %._crit_edge

.lr.ph:                                           ; preds = %8
  %9 = getelementptr inbounds nuw i8, ptr %4, i64 24
  br label %18

._crit_edge:                                      ; preds = %lean_inc.exit, %8
  %.030.lcssa = phi ptr [ %7, %8 ], [ %2, %lean_inc.exit ]
  %10 = ptrtoint ptr %.030.lcssa to i64
  %11 = and i64 %10, 1
  %.not47 = icmp eq i64 %11, 0
  br i1 %.not47, label %12, label %58

12:                                               ; preds = %._crit_edge
  %.val.i = load i32, ptr %.030.lcssa, align 4, !tbaa !8
  %13 = icmp sgt i32 %.val.i, 0
  br i1 %13, label %14, label %16, !prof !11

14:                                               ; preds = %12
  %15 = add nuw i32 %.val.i, 1
  store i32 %15, ptr %.030.lcssa, align 4, !tbaa !8
  br label %58

16:                                               ; preds = %12
  %.not.i35 = icmp eq i32 %.val.i, 0
  br i1 %.not.i35, label %58, label %17

17:                                               ; preds = %16
  tail call void @lean_inc_ref_cold(ptr noundef nonnull %.030.lcssa) #5
  br label %58

18:                                               ; preds = %.lr.ph, %lean_inc.exit
  %.02750 = phi i64 [ %6, %.lr.ph ], [ %57, %lean_inc.exit ]
  %19 = getelementptr inbounds nuw [0 x ptr], ptr %9, i64 0, i64 %.02750
  %20 = load ptr, ptr %19, align 8, !tbaa !4
  %21 = ptrtoint ptr %20 to i64
  %22 = and i64 %21, 1
  %.not.i36 = icmp eq i64 %22, 0
  br i1 %.not.i36, label %23, label %lean_array_uget.exit.thread

23:                                               ; preds = %18
  %.val.i.i = load i32, ptr %20, align 4, !tbaa !8
  %24 = icmp sgt i32 %.val.i.i, 0
  br i1 %24, label %25, label %27, !prof !11

25:                                               ; preds = %23
  %26 = add nuw i32 %.val.i.i, 1
  store i32 %26, ptr %20, align 4, !tbaa !8
  br label %lean_array_uget.exit

27:                                               ; preds = %23
  %.not.i.i = icmp eq i32 %.val.i.i, 0
  br i1 %.not.i.i, label %lean_array_uget.exit, label %28

28:                                               ; preds = %27
  tail call void @lean_inc_ref_cold(ptr noundef nonnull %20) #5
  br label %lean_array_uget.exit

lean_array_uget.exit:                             ; preds = %25, %27, %28
  %29 = tail call zeroext i8 @l_Lean_Meta_Grind_isSameExpr_unsafe__1(ptr noundef nonnull %20, ptr noundef %3) #5
  %30 = icmp eq i8 %29, 0
  br i1 %30, label %33, label %40

lean_array_uget.exit.thread:                      ; preds = %18
  %31 = tail call zeroext i8 @l_Lean_Meta_Grind_isSameExpr_unsafe__1(ptr noundef %20, ptr noundef %3) #5
  %32 = icmp eq i8 %31, 0
  br i1 %32, label %lean_inc.exit, label %40

33:                                               ; preds = %lean_array_uget.exit
  %34 = load i32, ptr %20, align 4, !tbaa !8
  %35 = icmp sgt i32 %34, 1
  br i1 %35, label %36, label %38, !prof !11

36:                                               ; preds = %33
  %37 = add nsw i32 %34, -1
  store i32 %37, ptr %20, align 4, !tbaa !8
  br label %lean_inc.exit

38:                                               ; preds = %33
  %.not.i = icmp eq i32 %34, 0
  br i1 %.not.i, label %lean_inc.exit, label %39

39:                                               ; preds = %38
  tail call void @lean_dec_ref_cold(ptr noundef nonnull %20) #5
  br label %lean_inc.exit

40:                                               ; preds = %lean_array_uget.exit.thread, %lean_array_uget.exit
  tail call void @lean_inc_heartbeat() #5
  %41 = tail call noalias ptr @mi_malloc_small(i64 noundef 16) #5
  %42 = icmp eq ptr %41, null
  br i1 %42, label %43, label %lean_alloc_ctor.exit

43:                                               ; preds = %40
  tail call void @lean_internal_panic_out_of_memory() #6
  unreachable

lean_alloc_ctor.exit:                             ; preds = %40
  %44 = getelementptr inbounds nuw i8, ptr %41, i64 4
  store i32 1, ptr %41, align 4, !tbaa !8
  store i32 16842768, ptr %44, align 4
  %45 = getelementptr inbounds nuw i8, ptr %41, i64 8
  store ptr %20, ptr %45, align 8, !tbaa !4
  tail call void @lean_inc_heartbeat() #5
  %46 = tail call noalias ptr @mi_malloc_small(i64 noundef 16) #5
  %47 = icmp eq ptr %46, null
  br i1 %47, label %48, label %lean_alloc_ctor.exit37

48:                                               ; preds = %lean_alloc_ctor.exit
  tail call void @lean_internal_panic_out_of_memory() #6
  unreachable

lean_alloc_ctor.exit37:                           ; preds = %lean_alloc_ctor.exit
  %49 = getelementptr inbounds nuw i8, ptr %46, i64 4
  store i32 1, ptr %46, align 4, !tbaa !8
  store i32 16842768, ptr %49, align 4
  %50 = getelementptr inbounds nuw i8, ptr %46, i64 8
  store ptr %41, ptr %50, align 8, !tbaa !4
  tail call void @lean_inc_heartbeat() #5
  %51 = tail call noalias ptr @mi_malloc_small(i64 noundef 24) #5
  %52 = icmp eq ptr %51, null
  br i1 %52, label %53, label %lean_alloc_ctor.exit38

53:                                               ; preds = %lean_alloc_ctor.exit37
  tail call void @lean_internal_panic_out_of_memory() #6
  unreachable

lean_alloc_ctor.exit38:                           ; preds = %lean_alloc_ctor.exit37
  %54 = getelementptr inbounds nuw i8, ptr %51, i64 4
  store i32 1, ptr %51, align 4, !tbaa !8
  store i32 131096, ptr %54, align 4
  %55 = getelementptr inbounds nuw i8, ptr %51, i64 8
  store ptr %46, ptr %55, align 8, !tbaa !4
  %56 = getelementptr inbounds nuw i8, ptr %51, i64 16
  store ptr inttoptr (i64 1 to ptr), ptr %56, align 8, !tbaa !4
  br label %58

lean_inc.exit:                                    ; preds = %lean_array_uget.exit.thread, %36, %38, %39
  %57 = add nuw i64 %.02750, 1
  %exitcond.not = icmp eq i64 %57, %5
  br i1 %exitcond.not, label %._crit_edge, label %18

58:                                               ; preds = %lean_alloc_ctor.exit38, %17, %16, %14, %._crit_edge
  %.1.ph = phi ptr [ %.030.lcssa, %._crit_edge ], [ %.030.lcssa, %14 ], [ %.030.lcssa, %16 ], [ %.030.lcssa, %17 ], [ %51, %lean_alloc_ctor.exit38 ]
  ret ptr %.1.ph
}